target datalayout = "e-m:e-p270:32:32-p271:32:32-p272:64:64-i64:64-i128:128-f80:128-n8:16:32:64-S128"
target triple = "x86_64-pc-linux-gnu"

; Function Attrs: nounwind uwtable
define hidden i32 @_mi_prim_free(ptr noundef %0, i64 noundef %1) #0 {
  %3 = alloca ptr, align 8
  %4 = alloca i64, align 8
  %5 = alloca i8, align 1
  store ptr %0, ptr %3, align 8, !tbaa !25
  store i64 %1, ptr %4, align 8, !tbaa !8
  call void @llvm.lifetime.start.p0(i64 1, ptr %5) #6
  %6 = load ptr, ptr %3, align 8, !tbaa !25
  %7 = load i64, ptr %4, align 8, !tbaa !8
  %8 = call i32 @munmap(ptr noundef %6, i64 noundef %7) #7
  %9 = icmp eq i32 %8, -1
  %10 = zext i1 %9 to i8
  store i8 %10, ptr %5, align 1, !tbaa !21
  %11 = load i8, ptr %5, align 1, !tbaa !21, !range !23, !noundef !24
  %12 = trunc i8 %11 to i1
  br i1 %12, label %13, label %16

13:                                               ; preds = %2
  %14 = call ptr @__errno_location() #9
  %15 = load i32, ptr %14, align 4, !tbaa !19
  br label %17

16:                                               ; preds = %2
  br label %17

17:                                               ; preds = %16, %13
  %18 = phi i32 [ %15, %13 ], [ 0, %16 ]
  call void @llvm.lifetime.end.p0(i64 1, ptr %5) #6
  ret i32 %18
}